(dp0
Vtest1
p1
S'36SYLNLG53QZKLMM'
p2
sVtest3
p3
S'Y4HIWVF7A4IWAWVQ'
p4
sVtest7
p5
S'DGNXC4GT3RBHHUWP'
p6
sVsahands@gmail.com
p7
S'WCIK2WAUOC4QCPFJ'
p8
sVtest
p9
S'O6HJSFQJ25HHW6IL'
p10
sVTest
p11
S'7KHVX5POOPQFP5MY'
p12
s.